; Function Attrs: nounwind uwtable
define hidden void @_glfwSetWindowDecoratedX11(ptr noundef readonly captures(none) %0, i32 noundef %1) local_unnamed_addr #0 {
  %3 = alloca %struct.anon.41, align 8
  call void @llvm.lifetime.start.p0(i64 40, ptr nonnull %3) #17
  %4 = getelementptr inbounds nuw i8, ptr %3, i64 8
  call void @llvm.memset.p0.i64(ptr noundef nonnull align 8 dereferenceable(40) %4, i8 0, i64 32, i1 false)
  store i64 2, ptr %3, align 8, !tbaa !209
  %.not = icmp ne i32 %1, 0
  %5 = zext i1 %.not to i64
  %6 = getelementptr inbounds nuw i8, ptr %3, i64 16
  store i64 %5, ptr %6, align 8, !tbaa !349
  %7 = load ptr, ptr getelementptr inbounds nuw (i8, ptr @_glfw, i64 141368), align 8, !tbaa !125
  %8 = load ptr, ptr getelementptr inbounds nuw (i8, ptr @_glfw, i64 137840), align 8, !tbaa !93
  %9 = getelementptr inbounds nuw i8, ptr %0, i64 1248
  %10 = load i64, ptr %9, align 8, !tbaa !140
  %11 = load i64, ptr getelementptr inbounds nuw (i8, ptr @_glfw, i64 141144), align 8, !tbaa !211
  %12 = call i32 %7(ptr noundef %8, i64 noundef %10, i64 noundef %11, i64 noundef %11, i32 noundef 32, i32 noundef 0, ptr noundef nonnull %3, i32 noundef 5) #17
  call void @llvm.lifetime.end.p0(i64 40, ptr nonnull %3) #17
  ret void
}